target datalayout = "e-m:e-p270:32:32-p271:32:32-p272:64:64-i64:64-i128:128-f80:128-n8:16:32:64-S128"
target triple = "x86_64-pc-linux-gnu"

%struct.expert_field = type { i32, i32 }
%struct._val64_string = type { i64, ptr }

@hf_wsmp_var_len_det = internal global i32 0, align 4
@hf_wsmp_psid = internal global i32 0, align 4
@ei_wsmp_psid_invalid = internal global %struct.expert_field zeroinitializer, align 4
@.str.81 = private unnamed_addr constant [8 x i8] c"Unknown\00", align 1
@.str.83 = private unnamed_addr constant [7 x i8] c"%s(%u)\00", align 1
@ieee1609dot2_Psid_vals = external constant [0 x %struct._val64_string], align 8

; Function Attrs: null_pointer_is_valid sspstrong uwtable
define internal i32 @dissect_wsmp_psid(ptr noundef %0, ptr noundef %1, ptr noundef %2, i32 noundef %3, ptr noundef %4) #0 {
  %6 = alloca i32, align 4
  %7 = alloca ptr, align 8
  %8 = alloca ptr, align 8
  %9 = alloca ptr, align 8
  %10 = alloca i32, align 4
  %11 = alloca ptr, align 8
  %12 = alloca i8, align 1
  %13 = alloca i32, align 4
  %14 = alloca i32, align 4
  store ptr %0, ptr %7, align 8
  store ptr %1, ptr %8, align 8
  store ptr %2, ptr %9, align 8
  store i32 %3, ptr %10, align 4
  store ptr %4, ptr %11, align 8
  call void @llvm.lifetime.start.p0(i64 1, ptr %12) #3
  call void @llvm.lifetime.start.p0(i64 4, ptr %13) #3
  store i32 0, ptr %13, align 4
  %15 = load ptr, ptr %7, align 8
  %16 = load i32, ptr %10, align 4
  %17 = call zeroext i8 @tvb_get_uint8(ptr noundef %15, i32 noundef %16)
  store i8 %17, ptr %12, align 1
  %18 = load ptr, ptr %11, align 8
  store i32 0, ptr %18, align 4
  %19 = load i8, ptr %12, align 1
  %20 = zext i8 %19 to i32
  %21 = and i32 %20, 240
  %22 = icmp eq i32 %21, 240
  br i1 %22, label %23, label %31

23:                                               ; preds = %5
  %24 = load ptr, ptr %9, align 8
  %25 = load ptr, ptr %8, align 8
  %26 = load ptr, ptr %7, align 8
  %27 = load i32, ptr %10, align 4
  %28 = call ptr @proto_tree_add_expert(ptr noundef %24, ptr noundef %25, ptr noundef @ei_wsmp_psid_invalid, ptr noundef %26, i32 noundef %27, i32 noundef 1)
  %29 = load i32, ptr %10, align 4
  %30 = add i32 %29, 1
  store i32 %30, ptr %6, align 4
  store i32 1, ptr %14, align 4
  br label %132

31:                                               ; preds = %5
  %32 = load i8, ptr %12, align 1
  %33 = zext i8 %32 to i32
  %34 = and i32 %33, 240
  %35 = icmp eq i32 %34, 224
  br i1 %35, label %36, label %37

36:                                               ; preds = %31
  store i32 4, ptr %13, align 4
  br label %58

37:                                               ; preds = %31
  %38 = load i8, ptr %12, align 1
  %39 = zext i8 %38 to i32
  %40 = and i32 %39, 224
  %41 = icmp eq i32 %40, 192
  br i1 %41, label %42, label %43

42:                                               ; preds = %37
  store i32 3, ptr %13, align 4
  br label %57

43:                                               ; preds = %37
  %44 = load i8, ptr %12, align 1
  %45 = zext i8 %44 to i32
  %46 = and i32 %45, 192
  %47 = icmp eq i32 %46, 128
  br i1 %47, label %48, label %49

48:                                               ; preds = %43
  store i32 2, ptr %13, align 4
  br label %56

49:                                               ; preds = %43
  %50 = load i8, ptr %12, align 1
  %51 = zext i8 %50 to i32
  %52 = and i32 %51, 128
  %53 = icmp eq i32 %52, 0
  br i1 %53, label %54, label %55

54:                                               ; preds = %49
  store i32 1, ptr %13, align 4
  br label %55

55:                                               ; preds = %54, %49
  br label %56

56:                                               ; preds = %55, %48
  br label %57

57:                                               ; preds = %56, %42
  br label %58

58:                                               ; preds = %57, %36
  br label %59

59:                                               ; preds = %58
  %60 = load i32, ptr %13, align 4
  %61 = icmp eq i32 %60, 1
  br i1 %61, label %62, label %66

62:                                               ; preds = %59
  %63 = load i8, ptr %12, align 1
  %64 = zext i8 %63 to i32
  %65 = load ptr, ptr %11, align 8
  store i32 %64, ptr %65, align 4
  br label %100

66:                                               ; preds = %59
  %67 = load i32, ptr %13, align 4
  %68 = icmp eq i32 %67, 2
  br i1 %68, label %69, label %77

69:                                               ; preds = %66
  %70 = load ptr, ptr %7, align 8
  %71 = load i32, ptr %10, align 4
  %72 = call zeroext i16 @tvb_get_ntohs(ptr noundef %70, i32 noundef %71)
  %73 = zext i16 %72 to i32
  %74 = and i32 %73, -32769
  %75 = add i32 %74, 128
  %76 = load ptr, ptr %11, align 8
  store i32 %75, ptr %76, align 4
  br label %99

77:                                               ; preds = %66
  %78 = load i32, ptr %13, align 4
  %79 = icmp eq i32 %78, 3
  br i1 %79, label %80, label %87

80:                                               ; preds = %77
  %81 = load ptr, ptr %7, align 8
  %82 = load i32, ptr %10, align 4
  %83 = call i32 @tvb_get_ntoh24(ptr noundef %81, i32 noundef %82)
  %84 = and i32 %83, -12582913
  %85 = add i32 %84, 16512
  %86 = load ptr, ptr %11, align 8
  store i32 %85, ptr %86, align 4
  br label %98

87:                                               ; preds = %77
  %88 = load i32, ptr %13, align 4
  %89 = icmp eq i32 %88, 4
  br i1 %89, label %90, label %97

90:                                               ; preds = %87
  %91 = load ptr, ptr %7, align 8
  %92 = load i32, ptr %10, align 4
  %93 = call i32 @tvb_get_ntohl(ptr noundef %91, i32 noundef %92)
  %94 = and i32 %93, 536870911
  %95 = add i32 %94, 2113664
  %96 = load ptr, ptr %11, align 8
  store i32 %95, ptr %96, align 4
  br label %97

97:                                               ; preds = %90, %87
  br label %98

98:                                               ; preds = %97, %80
  br label %99

99:                                               ; preds = %98, %69
  br label %100

100:                                              ; preds = %99, %62
  %101 = load ptr, ptr %9, align 8
  %102 = load i32, ptr @hf_wsmp_var_len_det, align 4
  %103 = load ptr, ptr %7, align 8
  %104 = load i32, ptr %10, align 4
  %105 = shl i32 %104, 3
  %106 = load i32, ptr %13, align 4
  %107 = call ptr @proto_tree_add_bits_item(ptr noundef %101, i32 noundef %102, ptr noundef %103, i32 noundef %105, i32 noundef %106, i32 noundef 0)
  %108 = load ptr, ptr %9, align 8
  %109 = load i32, ptr @hf_wsmp_psid, align 4
  %110 = load ptr, ptr %7, align 8
  %111 = load i32, ptr %10, align 4
  %112 = shl i32 %111, 3
  %113 = load i32, ptr %13, align 4
  %114 = add i32 %112, %113
  %115 = load i32, ptr %13, align 4
  %116 = shl i32 %115, 3
  %117 = load i32, ptr %13, align 4
  %118 = sub i32 %116, %117
  %119 = load ptr, ptr %11, align 8
  %120 = load i32, ptr %119, align 4
  %121 = load ptr, ptr %11, align 8
  %122 = load i32, ptr %121, align 4
  %123 = zext i32 %122 to i64
  %124 = call ptr @val64_to_str_const(i64 noundef %123, ptr noundef @ieee1609dot2_Psid_vals, ptr noundef @.str.81)
  %125 = load ptr, ptr %11, align 8
  %126 = load i32, ptr %125, align 4
  %127 = call ptr (ptr, i32, ptr, i32, i32, i32, i32, ptr, ...) @proto_tree_add_uint_bits_format_value(ptr noundef %108, i32 noundef %109, ptr noundef %110, i32 noundef %114, i32 noundef %118, i32 noundef %120, i32 noundef 0, ptr noundef @.str.83, ptr noundef %124, i32 noundef %126)
  %128 = load i32, ptr %13, align 4
  %129 = load i32, ptr %10, align 4
  %130 = add i32 %129, %128
  store i32 %130, ptr %10, align 4
  %131 = load i32, ptr %10, align 4
  store i32 %131, ptr %6, align 4
  store i32 1, ptr %14, align 4
  br label %132

132:                                              ; preds = %100, %23
  call void @llvm.lifetime.end.p0(i64 4, ptr %13) #3
  call void @llvm.lifetime.end.p0(i64 1, ptr %12) #3
  %133 = load i32, ptr %6, align 4
  ret i32 %133
}