; Function Attrs: null_pointer_is_valid sspstrong uwtable
define internal fastcc noundef i32 @dissect_wsmp_psid(ptr noundef %0, ptr noundef %1, ptr noundef %2, i32 noundef %3, ptr noundef captures(none) initializes((0, 4)) %4) unnamed_addr #0 {
  %6 = tail call zeroext i8 @tvb_get_uint8(ptr noundef %0, i32 noundef %3)
  store i32 0, ptr %4, align 4
  %7 = zext i8 %6 to i32
  %trunc = and i8 %6, -16
  switch i8 %trunc, label %11 [
    i8 -16, label %8
    i8 -32, label %27
  ]

8:                                                ; preds = %5
  %9 = tail call ptr @proto_tree_add_expert(ptr noundef %2, ptr noundef %1, ptr noundef nonnull @ei_wsmp_psid_invalid, ptr noundef %0, i32 noundef %3, i32 noundef 1)
  %10 = add i32 %3, 1
  br label %44

11:                                               ; preds = %5
  %12 = and i32 %7, 224
  %13 = icmp eq i32 %12, 192
  br i1 %13, label %23, label %14

14:                                               ; preds = %11
  %15 = and i32 %7, 192
  %16 = icmp eq i32 %15, 128
  br i1 %16, label %19, label %17

17:                                               ; preds = %14
  %18 = icmp sgt i8 %6, -1
  br i1 %18, label %.sink.split, label %31

19:                                               ; preds = %14
  %20 = tail call zeroext i16 @tvb_get_ntohs(ptr noundef %0, i32 noundef %3)
  %21 = and i16 %20, 32767
  %narrow = add nuw i16 %21, 128
  %22 = zext i16 %narrow to i32
  br label %.sink.split

23:                                               ; preds = %11
  %24 = tail call i32 @tvb_get_ntoh24(ptr noundef %0, i32 noundef %3)
  %25 = and i32 %24, -12582913
  %26 = add nuw nsw i32 %25, 16512
  br label %.sink.split

27:                                               ; preds = %5
  %28 = tail call i32 @tvb_get_ntohl(ptr noundef %0, i32 noundef %3)
  %29 = and i32 %28, 536870911
  %30 = add nuw nsw i32 %29, 2113664
  br label %.sink.split

.sink.split:                                      ; preds = %17, %23, %27, %19
  %.sink = phi i32 [ %22, %19 ], [ %30, %27 ], [ %26, %23 ], [ %7, %17 ]
  %.049.ph = phi i32 [ 2, %19 ], [ 4, %27 ], [ 3, %23 ], [ 1, %17 ]
  store i32 %.sink, ptr %4, align 4
  br label %31

31:                                               ; preds = %.sink.split, %17
  %.049 = phi i32 [ 0, %17 ], [ %.049.ph, %.sink.split ]
  %32 = load i32, ptr @hf_wsmp_var_len_det, align 4
  %33 = shl i32 %3, 3
  %34 = tail call ptr @proto_tree_add_bits_item(ptr noundef %2, i32 noundef %32, ptr noundef %0, i32 noundef %33, i32 noundef %.049, i32 noundef 0)
  %35 = load i32, ptr @hf_wsmp_psid, align 4
  %36 = or disjoint i32 %.049, %33
  %37 = mul nuw nsw i32 %.049, 7
  %38 = load i32, ptr %4, align 4
  %39 = zext i32 %38 to i64
  %40 = tail call ptr @val64_to_str_const(i64 noundef %39, ptr noundef nonnull @ieee1609dot2_Psid_vals, ptr noundef nonnull @.str.81)
  %41 = load i32, ptr %4, align 4
  %42 = tail call ptr (ptr, i32, ptr, i32, i32, i32, i32, ptr, ...) @proto_tree_add_uint_bits_format_value(ptr noundef %2, i32 noundef %35, ptr noundef %0, i32 noundef %36, i32 noundef %37, i32 noundef %38, i32 noundef 0, ptr noundef nonnull @.str.83, ptr noundef %40, i32 noundef %41)
  %43 = add i32 %.049, %3
  br label %44

44:                                               ; preds = %31, %8
  %.044 = phi i32 [ %10, %8 ], [ %43, %31 ]
  ret i32 %.044
}